target datalayout = "e-m:e-p270:32:32-p271:32:32-p272:64:64-i64:64-i128:128-f80:128-n8:16:32:64-S128"
target triple = "x86_64-pc-linux-gnu"

%struct._object = type { %union.anon, ptr }
%union.anon = type { i64 }
%struct.PyVarObject = type { %struct._object, i64 }
%struct.anon = type { i32, i32 }
%struct._BlocksOutputBuffer = type { ptr, i64, i64 }
%struct.PyBytesObject = type { %struct.PyVarObject, i64, [1 x i8] }

@BUFFER_BLOCK_SIZE = internal constant [17 x i64] [i64 32768, i64 65536, i64 262144, i64 1048576, i64 4194304, i64 8388608, i64 16777216, i64 16777216, i64 33554432, i64 33554432, i64 33554432, i64 33554432, i64 67108864, i64 67108864, i64 134217728, i64 134217728, i64 268435456], align 16
@PyExc_SystemError = external global ptr, align 8
@.str.9 = private unnamed_addr constant [53 x i8] c"avail_out is non-zero in _BlocksOutputBuffer_Grow().\00", align 1
@PyExc_MemoryError = external global ptr, align 8
@unable_allocate_msg = internal constant [34 x i8] c"Unable to allocate output buffer.\00", align 16

; Function Attrs: alwaysinline nounwind uwtable
define internal i32 @_Py_IsImmortal(ptr noundef %0) #4 {
  %2 = alloca ptr, align 8
  store ptr %0, ptr %2, align 8, !tbaa !3
  %3 = load ptr, ptr %2, align 8, !tbaa !3
  %4 = getelementptr inbounds nuw %struct._object, ptr %3, i32 0, i32 0
  %5 = getelementptr inbounds nuw %struct.anon, ptr %4, i32 0, i32 0
  %6 = load i32, ptr %5, align 8, !tbaa !33
  %7 = icmp slt i32 %6, 0
  %8 = zext i1 %7 to i32
  ret i32 %8
}

; Function Attrs: inlinehint nounwind uwtable
define internal ptr @PyBytes_AS_STRING(ptr noundef %0) #3 {
  %2 = alloca ptr, align 8
  store ptr %0, ptr %2, align 8, !tbaa !3
  %3 = load ptr, ptr %2, align 8, !tbaa !3
  %4 = getelementptr inbounds nuw %struct.PyBytesObject, ptr %3, i32 0, i32 2
  %5 = getelementptr inbounds [1 x i8], ptr %4, i64 0, i64 0
  ret ptr %5
}

; Function Attrs: alwaysinline nounwind uwtable
define internal void @Py_DECREF(ptr noundef %0) #4 {
  %2 = alloca ptr, align 8
  store ptr %0, ptr %2, align 8, !tbaa !3
  %3 = load ptr, ptr %2, align 8, !tbaa !3
  %4 = call i32 @_Py_IsImmortal(ptr noundef %3)
  %5 = icmp ne i32 %4, 0
  br i1 %5, label %6, label %7

6:                                                ; preds = %1
  br label %16

7:                                                ; preds = %1
  %8 = load ptr, ptr %2, align 8, !tbaa !3
  %9 = getelementptr inbounds nuw %struct._object, ptr %8, i32 0, i32 0
  %10 = getelementptr inbounds nuw %struct.anon, ptr %9, i32 0, i32 0
  %11 = load i32, ptr %10, align 8, !tbaa !33
  %12 = add i32 %11, -1
  store i32 %12, ptr %10, align 8, !tbaa !33
  %13 = icmp eq i32 %12, 0
  br i1 %13, label %14, label %16

14:                                               ; preds = %7
  %15 = load ptr, ptr %2, align 8, !tbaa !3
  call void @_Py_Dealloc(ptr noundef %15)
  br label %16

16:                                               ; preds = %6, %14, %7
  ret void
}

; Function Attrs: inlinehint nounwind uwtable
define internal i64 @Py_SIZE(ptr noundef %0) #3 {
  %2 = alloca ptr, align 8
  store ptr %0, ptr %2, align 8, !tbaa !3
  %3 = load ptr, ptr %2, align 8, !tbaa !3
  %4 = getelementptr inbounds nuw %struct.PyVarObject, ptr %3, i32 0, i32 1
  %5 = load i64, ptr %4, align 8, !tbaa !58
  ret i64 %5
}

; Function Attrs: inlinehint nounwind uwtable
define internal i64 @_BlocksOutputBuffer_Grow(ptr noundef %0, ptr noundef %1, i64 noundef %2) #3 {
  %4 = alloca i64, align 8
  %5 = alloca ptr, align 8
  %6 = alloca ptr, align 8
  %7 = alloca i64, align 8
  %8 = alloca ptr, align 8
  %9 = alloca i64, align 8
  %10 = alloca i64, align 8
  %11 = alloca i32, align 4
  %12 = alloca i64, align 8
  store ptr %0, ptr %5, align 8, !tbaa !8
  store ptr %1, ptr %6, align 8, !tbaa !8
  store i64 %2, ptr %7, align 8, !tbaa !43
  call void @llvm.lifetime.start.p0(i64 8, ptr %8) #7
  call void @llvm.lifetime.start.p0(i64 8, ptr %9) #7
  %13 = load ptr, ptr %5, align 8, !tbaa !8
  %14 = getelementptr inbounds nuw %struct._BlocksOutputBuffer, ptr %13, i32 0, i32 0
  %15 = load ptr, ptr %14, align 8, !tbaa !51
  %16 = call i64 @Py_SIZE(ptr noundef %15)
  store i64 %16, ptr %9, align 8, !tbaa !43
  call void @llvm.lifetime.start.p0(i64 8, ptr %10) #7
  %17 = load i64, ptr %7, align 8, !tbaa !43
  %18 = icmp ne i64 %17, 0
  br i1 %18, label %19, label %21

19:                                               ; preds = %3
  %20 = load ptr, ptr @PyExc_SystemError, align 8, !tbaa !3
  call void @PyErr_SetString(ptr noundef %20, ptr noundef @.str.9)
  store i64 -1, ptr %4, align 8
  store i32 1, ptr %11, align 4
  br label %85

21:                                               ; preds = %3
  %22 = load i64, ptr %9, align 8, !tbaa !43
  %23 = icmp slt i64 %22, 17
  br i1 %23, label %24, label %28

24:                                               ; preds = %21
  %25 = load i64, ptr %9, align 8, !tbaa !43
  %26 = getelementptr [17 x i64], ptr @BUFFER_BLOCK_SIZE, i64 0, i64 %25
  %27 = load i64, ptr %26, align 8, !tbaa !43
  store i64 %27, ptr %10, align 8, !tbaa !43
  br label %30

28:                                               ; preds = %21
  %29 = load i64, ptr getelementptr ([17 x i64], ptr @BUFFER_BLOCK_SIZE, i64 0, i64 16), align 16, !tbaa !43
  store i64 %29, ptr %10, align 8, !tbaa !43
  br label %30

30:                                               ; preds = %28, %24
  %31 = load ptr, ptr %5, align 8, !tbaa !8
  %32 = getelementptr inbounds nuw %struct._BlocksOutputBuffer, ptr %31, i32 0, i32 2
  %33 = load i64, ptr %32, align 8, !tbaa !54
  %34 = icmp sge i64 %33, 0
  br i1 %34, label %35, label %49

35:                                               ; preds = %30
  call void @llvm.lifetime.start.p0(i64 8, ptr %12) #7
  %36 = load ptr, ptr %5, align 8, !tbaa !8
  %37 = getelementptr inbounds nuw %struct._BlocksOutputBuffer, ptr %36, i32 0, i32 2
  %38 = load i64, ptr %37, align 8, !tbaa !54
  %39 = load ptr, ptr %5, align 8, !tbaa !8
  %40 = getelementptr inbounds nuw %struct._BlocksOutputBuffer, ptr %39, i32 0, i32 1
  %41 = load i64, ptr %40, align 8, !tbaa !53
  %42 = sub i64 %38, %41
  store i64 %42, ptr %12, align 8, !tbaa !43
  %43 = load i64, ptr %10, align 8, !tbaa !43
  %44 = load i64, ptr %12, align 8, !tbaa !43
  %45 = icmp sgt i64 %43, %44
  br i1 %45, label %46, label %48

46:                                               ; preds = %35
  %47 = load i64, ptr %12, align 8, !tbaa !43
  store i64 %47, ptr %10, align 8, !tbaa !43
  br label %48

48:                                               ; preds = %46, %35
  call void @llvm.lifetime.end.p0(i64 8, ptr %12) #7
  br label %49

49:                                               ; preds = %48, %30
  %50 = load i64, ptr %10, align 8, !tbaa !43
  %51 = load ptr, ptr %5, align 8, !tbaa !8
  %52 = getelementptr inbounds nuw %struct._BlocksOutputBuffer, ptr %51, i32 0, i32 1
  %53 = load i64, ptr %52, align 8, !tbaa !53
  %54 = sub i64 9223372036854775807, %53
  %55 = icmp sgt i64 %50, %54
  br i1 %55, label %56, label %58

56:                                               ; preds = %49
  %57 = load ptr, ptr @PyExc_MemoryError, align 8, !tbaa !3
  call void @PyErr_SetString(ptr noundef %57, ptr noundef @unable_allocate_msg)
  store i64 -1, ptr %4, align 8
  store i32 1, ptr %11, align 4
  br label %85

58:                                               ; preds = %49
  %59 = load i64, ptr %10, align 8, !tbaa !43
  %60 = call ptr @PyBytes_FromStringAndSize(ptr noundef null, i64 noundef %59)
  store ptr %60, ptr %8, align 8, !tbaa !3
  %61 = load ptr, ptr %8, align 8, !tbaa !3
  %62 = icmp eq ptr %61, null
  br i1 %62, label %63, label %65

63:                                               ; preds = %58
  %64 = load ptr, ptr @PyExc_MemoryError, align 8, !tbaa !3
  call void @PyErr_SetString(ptr noundef %64, ptr noundef @unable_allocate_msg)
  store i64 -1, ptr %4, align 8
  store i32 1, ptr %11, align 4
  br label %85

65:                                               ; preds = %58
  %66 = load ptr, ptr %5, align 8, !tbaa !8
  %67 = getelementptr inbounds nuw %struct._BlocksOutputBuffer, ptr %66, i32 0, i32 0
  %68 = load ptr, ptr %67, align 8, !tbaa !51
  %69 = load ptr, ptr %8, align 8, !tbaa !3
  %70 = call i32 @PyList_Append(ptr noundef %68, ptr noundef %69)
  %71 = icmp slt i32 %70, 0
  br i1 %71, label %72, label %74

72:                                               ; preds = %65
  %73 = load ptr, ptr %8, align 8, !tbaa !3
  call void @Py_DECREF(ptr noundef %73)
  store i64 -1, ptr %4, align 8
  store i32 1, ptr %11, align 4
  br label %85

74:                                               ; preds = %65
  %75 = load ptr, ptr %8, align 8, !tbaa !3
  call void @Py_DECREF(ptr noundef %75)
  %76 = load i64, ptr %10, align 8, !tbaa !43
  %77 = load ptr, ptr %5, align 8, !tbaa !8
  %78 = getelementptr inbounds nuw %struct._BlocksOutputBuffer, ptr %77, i32 0, i32 1
  %79 = load i64, ptr %78, align 8, !tbaa !53
  %80 = add i64 %79, %76
  store i64 %80, ptr %78, align 8, !tbaa !53
  %81 = load ptr, ptr %8, align 8, !tbaa !3
  %82 = call ptr @PyBytes_AS_STRING(ptr noundef %81)
  %83 = load ptr, ptr %6, align 8, !tbaa !8
  store ptr %82, ptr %83, align 8, !tbaa !8
  %84 = load i64, ptr %10, align 8, !tbaa !43
  store i64 %84, ptr %4, align 8
  store i32 1, ptr %11, align 4
  br label %85

85:                                               ; preds = %74, %72, %63, %56, %19
  call void @llvm.lifetime.end.p0(i64 8, ptr %10) #7
  call void @llvm.lifetime.end.p0(i64 8, ptr %9) #7
  call void @llvm.lifetime.end.p0(i64 8, ptr %8) #7
  %86 = load i64, ptr %4, align 8
  ret i64 %86
}

; Function Attrs: inlinehint nounwind uwtable
define internal i64 @OutputBuffer_Grow(ptr noundef %0, ptr noundef %1, ptr noundef %2) #3 {
  %4 = alloca ptr, align 8
  %5 = alloca ptr, align 8
  %6 = alloca ptr, align 8
  %7 = alloca i64, align 8
  store ptr %0, ptr %4, align 8, !tbaa !8
  store ptr %1, ptr %5, align 8, !tbaa !47
  store ptr %2, ptr %6, align 8, !tbaa !49
  call void @llvm.lifetime.start.p0(i64 8, ptr %7) #7
  %8 = load ptr, ptr %4, align 8, !tbaa !8
  %9 = load ptr, ptr %5, align 8, !tbaa !47
  %10 = load ptr, ptr %6, align 8, !tbaa !49
  %11 = load i32, ptr %10, align 4, !tbaa !12
  %12 = zext i32 %11 to i64
  %13 = call i64 @_BlocksOutputBuffer_Grow(ptr noundef %8, ptr noundef %9, i64 noundef %12)
  store i64 %13, ptr %7, align 8, !tbaa !43
  %14 = load i64, ptr %7, align 8, !tbaa !43
  %15 = trunc i64 %14 to i32
  %16 = load ptr, ptr %6, align 8, !tbaa !49
  store i32 %15, ptr %16, align 4, !tbaa !12
  %17 = load i64, ptr %7, align 8, !tbaa !43
  call void @llvm.lifetime.end.p0(i64 8, ptr %7) #7
  ret i64 %17
}